; Function Attrs: nounwind sspstrong uwtable
define internal i64 @rb_file_s_realpath(i32 noundef %0, ptr noundef readonly captures(none) %1, i64 %2) #0 {
  %4 = alloca i64, align 8
  %5 = alloca i64, align 8
  %6 = alloca ptr, align 8
  %7 = add i32 %0, -3
  %or.cond = icmp ult i32 %7, -2
  br i1 %or.cond, label %8, label %rb_check_arity.exit

8:                                                ; preds = %3
  tail call void @rb_error_arity(i32 noundef %0, i32 noundef 1, i32 noundef 2) #24
  unreachable

rb_check_arity.exit:                              ; preds = %3
  %9 = icmp samesign ugt i32 %0, 1
  br i1 %9, label %10, label %13

10:                                               ; preds = %rb_check_arity.exit
  %11 = getelementptr i8, ptr %1, i64 8
  %12 = load i64, ptr %11, align 8, !tbaa !12
  br label %13

13:                                               ; preds = %rb_check_arity.exit, %10
  %14 = phi i64 [ %12, %10 ], [ 4, %rb_check_arity.exit ]
  call void @llvm.lifetime.start.p0(i64 8, ptr nonnull %5) #22
  %15 = load i64, ptr %1, align 8, !tbaa !12
  store i64 %15, ptr %5, align 8, !tbaa !12
  call void @llvm.lifetime.start.p0(i64 8, ptr nonnull %4) #22
  %16 = icmp eq i64 %15, 0
  %17 = and i64 %15, 7
  %18 = icmp ne i64 %17, 0
  %19 = or i1 %16, %18
  br i1 %19, label %rbimpl_RB_TYPE_P_fastpath.exit.thread.i.i, label %rbimpl_RB_TYPE_P_fastpath.exit.i.i

rbimpl_RB_TYPE_P_fastpath.exit.i.i:               ; preds = %13
  %20 = inttoptr i64 %15 to ptr
  %21 = load i64, ptr %20, align 8, !tbaa !7
  %22 = and i64 %21, 31
  %23 = icmp eq i64 %22, 5
  br i1 %23, label %rb_get_path.exit, label %rbimpl_RB_TYPE_P_fastpath.exit.thread.i.i

rbimpl_RB_TYPE_P_fastpath.exit.thread.i.i:        ; preds = %rbimpl_RB_TYPE_P_fastpath.exit.i.i, %13
  %.pr.i.i.i = load i64, ptr @rb_get_path_check_to_string.rbimpl_id, align 8, !tbaa !12
  %.not4.i.i.i = icmp eq i64 %.pr.i.i.i, 0
  br i1 %.not4.i.i.i, label %.lr.ph.i.i.i, label %rbimpl_intern_const.exit.i.i

.lr.ph.i.i.i:                                     ; preds = %rbimpl_RB_TYPE_P_fastpath.exit.thread.i.i, %.lr.ph.i.i.i
  %24 = tail call i64 @rb_intern2(ptr noundef nonnull @.str, i64 noundef 7) #22
  store i64 %24, ptr @rb_get_path_check_to_string.rbimpl_id, align 8, !tbaa !12
  %.not.i.i.i = icmp eq i64 %24, 0
  br i1 %.not.i.i.i, label %.lr.ph.i.i.i, label %rbimpl_intern_const.exit.i.i, !llvm.loop !13

rbimpl_intern_const.exit.i.i:                     ; preds = %.lr.ph.i.i.i, %rbimpl_RB_TYPE_P_fastpath.exit.thread.i.i
  %.lcssa.i.i.i = phi i64 [ %.pr.i.i.i, %rbimpl_RB_TYPE_P_fastpath.exit.thread.i.i ], [ %24, %.lr.ph.i.i.i ]
  %25 = tail call i64 @rb_check_funcall_default(i64 noundef %15, i64 noundef %.lcssa.i.i.i, i32 noundef 0, ptr noundef null, i64 noundef %15) #22
  store i64 %25, ptr %4, align 8, !tbaa !12
  %26 = call i64 @rb_string_value(ptr noundef nonnull %4) #22
  %27 = load i64, ptr %4, align 8, !tbaa !12
  br label %rb_get_path.exit

rb_get_path.exit:                                 ; preds = %rbimpl_RB_TYPE_P_fastpath.exit.i.i, %rbimpl_intern_const.exit.i.i
  %.0.i.i = phi i64 [ %27, %rbimpl_intern_const.exit.i.i ], [ %15, %rbimpl_RB_TYPE_P_fastpath.exit.i.i ]
  call void @llvm.lifetime.end.p0(i64 8, ptr nonnull %4) #22
  %28 = call i64 @rb_get_path_check_convert(i64 noundef %.0.i.i)
  call void @llvm.lifetime.start.p0(i64 8, ptr nonnull %6) #22
  store ptr %5, ptr %6, align 8, !tbaa !46
  call void asm sideeffect "", "*m,~{dirflag},~{fpsr},~{flags}"(ptr nonnull elementtype(ptr) %6) #22, !srcloc !257
  %29 = load ptr, ptr %6, align 8, !tbaa !46
  call void @llvm.lifetime.end.p0(i64 8, ptr nonnull %6) #22
  store volatile i64 %28, ptr %29, align 8, !tbaa !12
  %30 = load i64, ptr %5, align 8, !tbaa !12
  %31 = call ptr @rb_enc_get(i64 noundef %30) #22
  %32 = call fastcc i64 @rb_check_realpath_internal(i64 noundef %14, i64 noundef %30, ptr noundef %31, i32 noundef 2)
  call void @llvm.lifetime.end.p0(i64 8, ptr nonnull %5) #22
  ret i64 %32
}